target datalayout = "e-m:e-p270:32:32-p271:32:32-p272:64:64-i64:64-i128:128-f80:128-n8:16:32:64-S128"
target triple = "x86_64-unknown-linux-gnu"

; Function Attrs: mustprogress nounwind uwtable
define noundef double @_ZNK8QuantLib26SuoWangDoubleBarrierEngine1DEdddd(ptr noundef nonnull align 8 dereferenceable(456) %this, double noundef %X, double noundef %lambda, double noundef %sigma, double noundef %T) #1 align 2 {
entry:
  %this.addr = alloca ptr, align 8
  %X.addr = alloca double, align 8
  %lambda.addr = alloca double, align 8
  %sigma.addr = alloca double, align 8
  %T.addr = alloca double, align 8
  store ptr %this, ptr %this.addr, align 8, !tbaa !3
  store double %X, ptr %X.addr, align 8, !tbaa !68
  store double %lambda, ptr %lambda.addr, align 8, !tbaa !68
  store double %sigma, ptr %sigma.addr, align 8, !tbaa !68
  store double %T, ptr %T.addr, align 8, !tbaa !68
  %0 = load double, ptr %X.addr, align 8, !tbaa !68
  %call = call double @log(double noundef %0) #15, !tbaa !24
  %1 = load double, ptr %lambda.addr, align 8, !tbaa !68
  %2 = load double, ptr %T.addr, align 8, !tbaa !68
  %3 = call double @llvm.fmuladd.f64(double %1, double %2, double %call)
  %4 = load double, ptr %sigma.addr, align 8, !tbaa !68
  %5 = load double, ptr %T.addr, align 8, !tbaa !68
  %call2 = call double @sqrt(double noundef %5) #15, !tbaa !24
  %mul = fmul double %4, %call2
  %div = fdiv double %3, %mul
  ret double %div
}