; Function Attrs: mustprogress nofree nounwind willreturn memory(write) uwtable
define noundef double @_ZNK8QuantLib26SuoWangDoubleBarrierEngine1DEdddd(ptr nocapture noundef nonnull readnone align 8 dereferenceable(456) %this, double noundef %X, double noundef %lambda, double noundef %sigma, double noundef %T) local_unnamed_addr #12 align 2 {
entry:
  %call = tail call double @log(double noundef %X) #30, !tbaa !113
  %0 = tail call double @llvm.fmuladd.f64(double %lambda, double %T, double %call)
  %call2 = tail call double @sqrt(double noundef %T) #30, !tbaa !113
  %mul = fmul double %sigma, %call2
  %div = fdiv double %0, %mul
  ret double %div
}